S'url\\([\\\'"]?(?P<filepath>(?P<filenoext>.+)?\\.(?P<extension>[^\'")?#]+).*?)[\\\'"]?\\)'
p1
.S'@charset "utf-8";\n@font-face {\nfont-family:MountainsofChristmasRegular;\nsrc:url(../fonts/mountains-of-christmas-fontfacekit/MountainsofChristmas-webfont.eot?) format("eot"),\nurl(../fonts/mountains-of-christmas-fontfacekit/MountainsofChristmas-webfont.woff) format("woff"),\nurl(../fonts/mountains-of-christmas-fontfacekit/MountainsofChristmas-webfont.ttf) format("truetype"),\nurl(../fonts/mountains-of-christmas-fontfacekit/MountainsofChristmas-webfont.svg#webfontVHBHfIgM) format("svg");\nfont-weight:normal;\nfont-style:normal;\n}\n@font-face {\nfont-family:\'QuickEndJerk Regular\';\nsrc:url(../fonts/Quick-End-Jerk-fontfacekit/quick_end_jerk-webfont.eot?) format("eot"),\nurl(../fonts/Quick-End-Jerk-fontfacekit/quick_end_jerk-webfont.woff) format("woff"),\nurl(../fonts/Quick-End-Jerk-fontfacekit/quick_end_jerk-webfont.ttf) format("truetype"),\nurl(../fonts/Quick-End-Jerk-fontfacekit/quick_end_jerk-webfont.svg#webfontV2wESYqZ) format("svg");\nfont-weight:normal;\nfont-style:normal;\n}\n@media screen {\narticle h2 {\nfont:63px/70px MountainsofChristmasRegular,Arial,sans-serif;\n}\nli.address-book-new {\nbackground-image:url(../images/tango-icon-theme-0.8.90/32x32/actions/address-book-new.png);\n}\nli.not-exist {\nbackground-image:url(../images/tango-icon-theme-0.8.90/32x32/actions/not-exist.png);\n}\nli.appointment-new {\nbackground-image:url(../images/tango-icon-theme-0.8.90/32x32/actions/appointment-new.png);\n}\nli.bookmark-new {\nbackground-image:url(../images/tango-icon-theme-0.8.90/32x32/actions/bookmark-new.png);\n}\nli.contact-new {\nbackground-image:url(../images/tango-icon-theme-0.8.90/32x32/actions/contact-new.png);\n}\nli.document-new {\nbackground:transparent url(../images/tango-icon-theme-0.8.90/32x32/actions/document-new.png);\n}\nli.document-open {\nbackground:url(../images/tango-icon-theme-0.8.90/32x32/actions/document-open.png) no-repeat;\n}\nli.document-print-preview {\nbackground:transparent url(../images/tango-icon-theme-0.8.90/32x32/actions/document-print-preview.png) no-repeat;\n}\nli.document-print {\nbackground-image:url(../images/tango-icon-theme-0.8.90/32x32/actions/document-print.png);\n}\nli.document-properties {\ndisplay:block;\nbackground-image:url(../images/tango-icon-theme-0.8.90/32x32/actions/document-properties.png);\n}\nli.document-save-as {\nbackground-image:url(../images/tango-icon-theme-0.8.90/32x32/actions/document-save-as.png);\ndisplay:block;\n}\nli.document-save {\ndisplay:block;\nbackground-image:url(../images/tango-icon-theme-0.8.90/32x32/actions/document-save.png);\nposition:relative;\n}\nli.edit-clear {\ndisplay:block;\nbackground-image:url(../images/tango-icon-theme-0.8.90/32x32/actions/edit-clear.png);\nposition:relative;\n}\n#id,.class,element[attribute],element[attribute=value],element descendant,element descendant.class,element + adjacent,element:first-child,li.edit-copy {\nbackground-image:url(../images/tango-icon-theme-0.8.90/32x32/actions/edit-copy.png);\n}\nli.edit-cut {\nbackground-image:url(../images/tango-icon-theme-0.8.90/32x32/actions/edit-cut.png);\n_background-image:url(../images/tango-icon-theme-0.8.90/32x32/emotes/face-crying.png);\n}\nli.edit-delete {\nbackground-image:url(../images/tango-icon-theme-0.8.90/32x32/actions/edit-delete.png);\n*background-image:url(../images/tango-icon-theme-0.8.90/32x32/emotes/face-sad.png);\n}\nli.edit-find-replace {\nbackground-image:url(../images/tango-icon-theme-0.8.90/32x32/actions/edit-find-replace.png);\n}\nli.edit-find {\nbackground-image:url(../images/tango-icon-theme-0.8.90/32x32/actions/edit-find.png);\n}\nli.edit-paste {\nbackground-image:url(../images/tango-icon-theme-0.8.90/32x32/actions/edit-paste.png);\n}\nli.edit-redo {\nbackground-image:url(../images/tango-icon-theme-0.8.90/32x32/actions/edit-redo.png);\n}\nli.edit-select-all {\nbackground-image:url(../images/tango-icon-theme-0.8.90/32x32/actions/edit-select-all.png);\n}\nli.edit-undo {\nbackground-image:url(../images/tango-icon-theme-0.8.90/32x32/actions/edit-undo.png);\n}\nli.folder-new {\nbackground-image:url(../images/tango-icon-theme-0.8.90/32x32/actions/folder-new.png);\n}\nli.format-indent-less {\nbackground-image:url(../images/tango-icon-theme-0.8.90/32x32/actions/format-indent-less.png);\n}\nli.format-indent-more {\nbackground-image:url(../images/tango-icon-theme-0.8.90/32x32/actions/format-indent-more.png);\n}\nli.format-justify-center {\nbackground-image:url(../images/tango-icon-theme-0.8.90/32x32/actions/format-justify-center.png);\n}\nli.format-justify-fill {\nbackground-image:url(../images/tango-icon-theme-0.8.90/32x32/actions/format-justify-fill.png);\n}\nli.format-justify-left {\nbackground-image:url(../images/tango-icon-theme-0.8.90/32x32/actions/format-justify-left.png);\n}\nli.format-justify-right {\nbackground-image:url(../images/tango-icon-theme-0.8.90/32x32/actions/format-justify-right.png);\n}\nli.format-text-bold {\nbackground-image:url(../images/tango-icon-theme-0.8.90/32x32/actions/format-text-bold.png);\n}\nli.format-text-italic {\nbackground-image:url(../images/tango-icon-theme-0.8.90/32x32/actions/format-text-italic.png);\n}\nli.format-text-strikethrough {\nbackground-image:url(../images/tango-icon-theme-0.8.90/32x32/actions/format-text-strikethrough.png);\n}\nli.format-text-underline {\nbackground-image:url(../images/tango-icon-theme-0.8.90/32x32/actions/format-text-underline.png);\n}\nli.go-bottom {\nbackground-image:url(../images/tango-icon-theme-0.8.90/32x32/actions/go-bottom.png);\n}\nli.go-down {\nbackground-image:url(../images/tango-icon-theme-0.8.90/32x32/actions/go-down.png);\n}\nli.go-first {\nbackground-image:url(../images/tango-icon-theme-0.8.90/32x32/actions/go-first.png);\n}\nli.go-home {\nbackground-image:url(../images/tango-icon-theme-0.8.90/32x32/actions/go-home.png);\n}\nli.go-jump {\nbackground-image:url(../images/tango-icon-theme-0.8.90/32x32/actions/go-jump.png);\n}\nli.go-last {\nbackground-image:url(../images/tango-icon-theme-0.8.90/32x32/actions/go-last.png);\n}\nli.go-next {\nbackground-image:url(../images/tango-icon-theme-0.8.90/32x32/actions/go-next.png);\n}\nli.go-previous {\nbackground-image:url(../images/tango-icon-theme-0.8.90/32x32/actions/go-previous.png);\n}\nli.go-top {\nbackground-image:url(../images/tango-icon-theme-0.8.90/32x32/actions/go-top.png);\n}\nli.go-up {\nbackground-image:url(../images/tango-icon-theme-0.8.90/32x32/actions/go-up.png);\n}\nli.list-add {\nbackground-image:url(../images/tango-icon-theme-0.8.90/32x32/actions/list-add.png);\n}\nli.list-remove {\nbackground-image:url(../images/tango-icon-theme-0.8.90/32x32/actions/list-remove.png);\n}\nli.mail-forward {\nbackground-image:url(../images/tango-icon-theme-0.8.90/32x32/actions/mail-forward.png);\n}\nli.mail-mark-junk {\nbackground-image:url(../images/tango-icon-theme-0.8.90/32x32/actions/mail-mark-junk.png);\n}\nli.mail-mark-not-junk {\nbackground-image:url(../images/tango-icon-theme-0.8.90/32x32/actions/mail-mark-not-junk.png);\n}\nli.mail-message-new {\nbackground-image:url(../images/tango-icon-theme-0.8.90/32x32/actions/mail-message-new.png);\n}\nli.mail-reply-all {\nbackground-image:url(../images/tango-icon-theme-0.8.90/32x32/actions/mail-reply-all.png);\n}\nli.mail-reply-sender {\nbackground-image:url(../images/tango-icon-theme-0.8.90/32x32/actions/mail-reply-sender.png);\n}\nli.mail-send-receive {\nbackground-image:url(../images/tango-icon-theme-0.8.90/32x32/actions/mail-send-receive.png);\n}\nli.media-eject {\nbackground-image:url(../images/tango-icon-theme-0.8.90/32x32/actions/media-eject.png);\n}\nli.media-playback-pause {\nbackground-image:url(../images/tango-icon-theme-0.8.90/32x32/actions/media-playback-pause.png);\n}\nli.media-playback-start {\nbackground-image:url(../images/tango-icon-theme-0.8.90/32x32/actions/media-playback-start.png);\n}\nli.media-playback-stop {\nbackground-image:url(../images/tango-icon-theme-0.8.90/32x32/actions/media-playback-stop.png);\n}\nli.media-record {\nbackground-image:url(../images/tango-icon-theme-0.8.90/32x32/actions/media-record.png);\n}\nli.media-seek-backward {\nbackground-image:url(../images/tango-icon-theme-0.8.90/32x32/actions/media-seek-backward.png);\n}\nli.media-seek-forward {\nbackground-image:url(../images/tango-icon-theme-0.8.90/32x32/actions/media-seek-forward.png);\n}\nli.media-skip-backward {\nbackground-image:url(../images/tango-icon-theme-0.8.90/32x32/actions/media-skip-backward.png);\n}\nli.media-skip-forward {\nbackground-image:url(../images/tango-icon-theme-0.8.90/32x32/actions/media-skip-forward.png);\n}\nli.process-stop {\nbackground-image:url(../images/tango-icon-theme-0.8.90/32x32/actions/process-stop.png);\n}\nli.system-lock-screen {\nbackground-image:url(../images/tango-icon-theme-0.8.90/32x32/actions/system-lock-screen.png);\n}\nli.system-log-out {\nbackground-image:url(../images/tango-icon-theme-0.8.90/32x32/actions/system-log-out.png);\n}\nli.system-search {\nbackground-image:url(../images/tango-icon-theme-0.8.90/32x32/actions/system-search.png);\n}\nli.system-shutdown {\nbackground-image:url(../images/tango-icon-theme-0.8.90/32x32/actions/system-shutdown.png);\n}\nli.tab-new {\nbackground-image:url(../images/tango-icon-theme-0.8.90/32x32/actions/tab-new.png);\n}\nli.view-fullscreen {\nbackground-image:url(../images/tango-icon-theme-0.8.90/32x32/actions/view-fullscreen.png);\n}\nli.view-refresh {\nbackground-image:url(../images/tango-icon-theme-0.8.90/32x32/actions/view-refresh.png);\n}\nli.window-new {\nbackground-image:url(../images/tango-icon-theme-0.8.90/32x32/actions/window-new.png);\n}\n.images li {\nbackground-position:50% 10px!important;\nbackground-repeat:no-repeat!important;\nfloat:left;\nfont-size:12px;\nheight:88px;\nlist-style:none;\nmargin:0 5px 5px 0;\npadding:52px 5px 10px;\ntext-align:center;\nwidth:140px;\n}\nli.mountains-of-christmas {\nfont:27px/36px MountainsofChristmasRegular,Arial,sans-serif;\n}\nli.quick-end-jerk {\nfont:18px/27px \'QuickEndJerk Regular\',Arial,sans-serif;\n}\n.clearfix:after {\ncontent:".";\ndisplay:block;\nheight:0;\nclear:both;\nvisibility:hidden;\n}\n.lte7 .clearfix {\nheight:1%;\n}\n}\n@media print {\nbody {\nfont-family:Arial,Helvetica,sans-serif;\n}\n}\n@media only screen and (max-width:480px),only screen and (max-device-width:480px),only screen and (max-width:854px) and (orientation:landscape),only screen and (max-device-width:854px) and (orientation:landscape) {\nhtml {\nbackground:none;\n}\nbody {\nbackground:#ddd;\ncolor:#222;\n}\n}\n@media only screen and (-webkit-min-device-pixel-ratio:2) {\n}\n'
p2
.I2
.S''
.